#include <math.h>
#include <stdio.h>
#include <stdlib.h>
#include <string.h>

int fenjie(int max,int min)
{
    int num=1,i,k;
    for(i=min;i<max/2;i++)
    {
        k=max%i;
        if(k==0)
        {
            if(i<=max/i)
            num+=fenjie(max/i,i);
        }
    }
    return num;
}
int main()
{
    int a[10000],n,j;
    scanf("%d",&n);
    for(j=0;j<n;j++)
    {
        scanf("\n%d",&a[j]);
    }
    for(j=0;j<n;j++)
    {
        printf("%d\n",fenjie(a[j],2));
    }
    return 0;
}